target datalayout = "e-m:e-p270:32:32-p271:32:32-p272:64:64-i64:64-i128:128-f80:128-n8:16:32:64-S128"
target triple = "x86_64-pc-linux-gnu"

%struct._zend_stack = type { i32, i32, i32, ptr }
%struct._zend_compiler_globals = type { %struct._zend_stack, ptr, ptr, i32, ptr, ptr, ptr, ptr, i8, i8, i8, i8, i8, %struct._zend_llist, ptr, i8, i8, i8, i8, ptr, i32, i32, %struct._zend_oparray_context, %struct._zend_file_context, ptr, %struct._zend_array, ptr, i64, i8, i8, i8, ptr, ptr, %struct._zend_stack, ptr, i32, ptr, ptr, i64, i64, ptr, ptr, ptr, ptr, i32, %struct._zend_stack }
%struct._zend_llist = type { ptr, ptr, i64, i64, ptr, i8, ptr }
%struct._zend_oparray_context = type { i32, i32, i32, i32, i32, i32, i32, ptr, ptr, i8 }
%struct._zend_file_context = type { %struct._zend_declarables, ptr, i8, i8, ptr, ptr, ptr, %struct._zend_array }
%struct._zend_declarables = type { i64 }
%struct._zend_array = type { %struct._zend_refcounted_h, %union.anon.0, i32, %union.anon.1, i32, i32, i32, i32, i64, ptr }
%struct._zend_refcounted_h = type { i32, %union.anon }
%union.anon = type { i32 }
%union.anon.0 = type { i32 }
%union.anon.1 = type { ptr }

@compiler_globals = external global %struct._zend_compiler_globals, align 8

; Function Attrs: nounwind uwtable
define i32 @zend_multibyte_set_script_encoding(ptr noundef %0, i64 noundef %1) #0 {
  %3 = alloca ptr, align 8
  %4 = alloca i64, align 8
  store ptr %0, ptr %3, align 8
  store i64 %1, ptr %4, align 8
  %5 = load ptr, ptr getelementptr inbounds (%struct._zend_compiler_globals, ptr @compiler_globals, i32 0, i32 26), align 8
  %6 = icmp ne ptr %5, null
  br i1 %6, label %7, label %9

7:                                                ; preds = %2
  %8 = load ptr, ptr getelementptr inbounds (%struct._zend_compiler_globals, ptr @compiler_globals, i32 0, i32 26), align 8
  call void @free(ptr noundef %8) #7
  br label %9

9:                                                ; preds = %7, %2
  %10 = load ptr, ptr %3, align 8
  store ptr %10, ptr getelementptr inbounds (%struct._zend_compiler_globals, ptr @compiler_globals, i32 0, i32 26), align 8
  %11 = load i64, ptr %4, align 8
  store i64 %11, ptr getelementptr inbounds (%struct._zend_compiler_globals, ptr @compiler_globals, i32 0, i32 27), align 8
  ret i32 0
}