; Function Attrs: mustprogress nounwind willreturn uwtable
define noundef i32 @zend_multibyte_set_script_encoding(ptr noundef %0, i64 noundef %1) local_unnamed_addr #6 {
  %3 = load ptr, ptr getelementptr inbounds (%struct._zend_compiler_globals, ptr @compiler_globals, i64 0, i32 26), align 8
  %.not = icmp eq ptr %3, null
  br i1 %.not, label %5, label %4

4:                                                ; preds = %2
  tail call void @free(ptr noundef nonnull %3) #12
  br label %5

5:                                                ; preds = %4, %2
  store ptr %0, ptr getelementptr inbounds (%struct._zend_compiler_globals, ptr @compiler_globals, i64 0, i32 26), align 8
  store i64 %1, ptr getelementptr inbounds (%struct._zend_compiler_globals, ptr @compiler_globals, i64 0, i32 27), align 8
  ret i32 0
}